; Function Attrs: mustprogress nounwind uwtable
define dso_local void @_ZNK5clang6driver9ToolChain16AddCCKextLibArgsERKN4llvm3opt7ArgListERNS2_11SmallVectorIPKcLj16EEE(ptr nocapture nonnull readnone align 8 %0, ptr nocapture nonnull readnone align 8 %1, ptr noundef nonnull align 8 dereferenceable(144) %2) unnamed_addr #0 align 2 {
  %4 = tail call noundef i64 @_ZNK4llvm15SmallVectorBaseIjE4sizeEv(ptr noundef nonnull align 8 dereferenceable(16) %2) #25
  %5 = add i64 %4, 1
  %6 = tail call noundef i64 @_ZNK4llvm15SmallVectorBaseIjE8capacityEv(ptr noundef nonnull align 8 dereferenceable(16) %2) #25
  %.not.i.i.i = icmp ugt i64 %5, %6
  br i1 %.not.i.i.i, label %7, label %_ZN4llvm23SmallVectorTemplateBaseIPKcLb1EE9push_backES2_.exit

7:                                                ; preds = %3
  %8 = getelementptr inbounds i8, ptr %2, i64 16
  tail call void @_ZN4llvm15SmallVectorBaseIjE8grow_podEPvmm(ptr noundef nonnull align 8 dereferenceable(16) %2, ptr noundef nonnull %8, i64 noundef %5, i64 noundef 8) #25
  br label %_ZN4llvm23SmallVectorTemplateBaseIPKcLb1EE9push_backES2_.exit

_ZN4llvm23SmallVectorTemplateBaseIPKcLb1EE9push_backES2_.exit: ; preds = %3, %7
  %9 = load ptr, ptr %2, align 8
  %10 = tail call noundef i64 @_ZNK4llvm15SmallVectorBaseIjE4sizeEv(ptr noundef nonnull align 8 dereferenceable(16) %2) #25
  %11 = getelementptr inbounds ptr, ptr %9, i64 %10
  store i64 ptrtoint (ptr @.str.64 to i64), ptr %11, align 1
  %12 = tail call noundef i64 @_ZNK4llvm15SmallVectorBaseIjE4sizeEv(ptr noundef nonnull align 8 dereferenceable(16) %2) #25
  %13 = add i64 %12, 1
  tail call void @_ZN4llvm15SmallVectorBaseIjE8set_sizeEm(ptr noundef nonnull align 8 dereferenceable(16) %2, i64 noundef %13) #25
  ret void
}